#include <math.h>
#include <stdio.h>
#include <stdlib.h>
#include <string.h>

int main()
{
	int n,i,max,m;
	char str[11],substr[4],temp[10];
	while(scanf("%s %s",str,substr)!=EOF)
	{
		max=str[0];
		n=strlen(str);
		for(i=0;i<n;i++)
		{
			if(str[i]>max) 
			{
				max=str[i];
				m=i;
			}
		}
		for(i=0;i<=m;i++)
		{
			printf("%c",str[i]);
		}
		printf("%s",substr);
		for(i=m+1;i<n;i++)
		{
			printf("%c",str[i]);
		}
		printf("\0");
		printf("\n");
	}
	return 0;
}
